target datalayout = "e-m:e-p270:32:32-p271:32:32-p272:64:64-i64:64-i128:128-f80:128-n8:16:32:64-S128"
target triple = "x86_64-pc-linux-gnu"

%"class.Yosys::SExpr" = type { %"class.std::variant.337" }
%"class.std::variant.337" = type { %"struct.std::__detail::__variant::_Variant_base.base.355", [7 x i8] }
%"struct.std::__detail::__variant::_Variant_base.base.355" = type { %"struct.std::__detail::__variant::_Move_assign_base.base.354" }
%"struct.std::__detail::__variant::_Move_assign_base.base.354" = type { %"struct.std::__detail::__variant::_Copy_assign_base.base.353" }
%"struct.std::__detail::__variant::_Copy_assign_base.base.353" = type { %"struct.std::__detail::__variant::_Move_ctor_base.base.352" }
%"struct.std::__detail::__variant::_Move_ctor_base.base.352" = type { %"struct.std::__detail::__variant::_Copy_ctor_base.base.351" }
%"struct.std::__detail::__variant::_Copy_ctor_base.base.351" = type { %"struct.std::__detail::__variant::_Variant_storage.base.350" }
%"struct.std::__detail::__variant::_Variant_storage.base.350" = type { %"union.std::__detail::__variant::_Variadic_union.344", i8 }
%"union.std::__detail::__variant::_Variadic_union.344" = type { %"union.std::__detail::__variant::_Variadic_union.347" }
%"union.std::__detail::__variant::_Variadic_union.347" = type { %"struct.std::__detail::__variant::_Uninitialized.348" }
%"struct.std::__detail::__variant::_Uninitialized.348" = type { %"struct.__gnu_cxx::__aligned_membuf.349" }
%"struct.__gnu_cxx::__aligned_membuf.349" = type { [32 x i8] }
%"struct.(anonymous namespace)::SmtrPrintVisitor" = type { %"struct.Yosys::Functional::AbstractVisitor", %"class.std::function", ptr, ptr }
%"struct.Yosys::Functional::AbstractVisitor" = type { ptr }
%"class.std::function" = type { %"class.std::_Function_base", ptr }
%"class.std::_Function_base" = type { %"union.std::_Any_data", ptr }
%"union.std::_Any_data" = type { %"union.std::_Nocopy_types" }
%"union.std::_Nocopy_types" = type { { i64, i64 } }
%"class.Yosys::Functional::Node" = type { %"struct.Yosys::ComputeGraph<Yosys::Functional::IR::NodeData, Yosys::Functional::IR::Attr, Yosys::RTLIL::IdString, std::tuple<Yosys::RTLIL::IdString, Yosys::RTLIL::IdString, bool>>::BaseRef" }
%"struct.Yosys::ComputeGraph<Yosys::Functional::IR::NodeData, Yosys::Functional::IR::Attr, Yosys::RTLIL::IdString, std::tuple<Yosys::RTLIL::IdString, Yosys::RTLIL::IdString, bool>>::BaseRef" = type <{ ptr, i32, [4 x i8] }>

@.str.23 = private unnamed_addr constant [7 x i8] c"concat\00", align 1

; Function Attrs: mustprogress nounwind uwtable
define linkonce_odr noundef zeroext i1 @_ZNKSt14_Function_base8_M_emptyEv(ptr noundef nonnull align 8 dereferenceable(24) %0) #6 comdat align 2 {
  %2 = alloca ptr, align 8
  store ptr %0, ptr %2, align 8, !tbaa !879
  %3 = load ptr, ptr %2, align 8
  %4 = getelementptr inbounds nuw %"class.std::_Function_base", ptr %3, i32 0, i32 1
  %5 = load ptr, ptr %4, align 8, !tbaa !881
  %6 = icmp ne ptr %5, null
  %7 = xor i1 %6, true
  ret i1 %7
}

; Function Attrs: mustprogress uwtable
define linkonce_odr void @_ZNKSt8functionIFN5Yosys5SExprENS0_10Functional4NodeEEEclES3_(ptr dead_on_unwind noalias writable sret(%"class.Yosys::SExpr") align 8 %0, ptr noundef nonnull align 8 dereferenceable(32) %1, ptr %2, i32 %3) #4 comdat align 2 {
  %5 = alloca ptr, align 8
  %6 = alloca %"class.Yosys::Functional::Node", align 8
  %7 = alloca ptr, align 8
  store ptr %0, ptr %5, align 8
  %8 = getelementptr inbounds nuw { ptr, i32 }, ptr %6, i32 0, i32 0
  store ptr %2, ptr %8, align 8
  %9 = getelementptr inbounds nuw { ptr, i32 }, ptr %6, i32 0, i32 1
  store i32 %3, ptr %9, align 8
  store ptr %1, ptr %7, align 8, !tbaa !736
  %10 = load ptr, ptr %7, align 8
  %11 = call noundef zeroext i1 @_ZNKSt14_Function_base8_M_emptyEv(ptr noundef nonnull align 8 dereferenceable(24) %10)
  br i1 %11, label %12, label %13

12:                                               ; preds = %4
  call void @_ZSt25__throw_bad_function_callv() #18
  unreachable

13:                                               ; preds = %4
  %14 = getelementptr inbounds nuw %"class.std::function", ptr %10, i32 0, i32 1
  %15 = load ptr, ptr %14, align 8, !tbaa !872
  %16 = getelementptr inbounds nuw %"class.std::_Function_base", ptr %10, i32 0, i32 0
  call void %15(ptr dead_on_unwind writable sret(%"class.Yosys::SExpr") align 8 %0, ptr noundef nonnull align 8 dereferenceable(16) %16, ptr noundef nonnull align 8 dereferenceable(16) %6)
  ret void
}

; Function Attrs: mustprogress uwtable
define internal void @_ZN12_GLOBAL__N_116SmtrPrintVisitor6concatEN5Yosys10Functional4NodeES3_S3_(ptr dead_on_unwind noalias writable sret(%"class.Yosys::SExpr") align 8 %0, ptr noundef nonnull align 8 dereferenceable(56) %1, ptr %2, i32 %3, ptr %4, i32 %5, ptr noundef byval(%"class.Yosys::Functional::Node") align 8 %6) unnamed_addr #4 align 2 personality ptr @__gxx_personality_v0 {
  %8 = alloca ptr, align 8
  %9 = alloca %"class.Yosys::Functional::Node", align 8
  %10 = alloca %"class.Yosys::Functional::Node", align 8
  %11 = alloca ptr, align 8
  %12 = alloca %"class.Yosys::SExpr", align 8
  %13 = alloca %"class.Yosys::Functional::Node", align 8
  %14 = alloca %"class.Yosys::SExpr", align 8
  %15 = alloca %"class.Yosys::Functional::Node", align 8
  %16 = alloca ptr, align 8
  %17 = alloca i32, align 4
  store ptr %0, ptr %8, align 8
  %18 = getelementptr inbounds nuw { ptr, i32 }, ptr %9, i32 0, i32 0
  store ptr %2, ptr %18, align 8
  %19 = getelementptr inbounds nuw { ptr, i32 }, ptr %9, i32 0, i32 1
  store i32 %3, ptr %19, align 8
  %20 = getelementptr inbounds nuw { ptr, i32 }, ptr %10, i32 0, i32 0
  store ptr %4, ptr %20, align 8
  %21 = getelementptr inbounds nuw { ptr, i32 }, ptr %10, i32 0, i32 1
  store i32 %5, ptr %21, align 8
  store ptr %1, ptr %11, align 8, !tbaa !87
  %22 = load ptr, ptr %11, align 8
  call void @llvm.lifetime.start.p0(i64 40, ptr %12) #3
  %23 = getelementptr inbounds nuw %"struct.(anonymous namespace)::SmtrPrintVisitor", ptr %22, i32 0, i32 1
  call void @llvm.memcpy.p0.p0.i64(ptr align 8 %13, ptr align 8 %6, i64 16, i1 false), !tbaa.struct !93
  %24 = getelementptr inbounds nuw { ptr, i32 }, ptr %13, i32 0, i32 0
  %25 = load ptr, ptr %24, align 8
  %26 = getelementptr inbounds nuw { ptr, i32 }, ptr %13, i32 0, i32 1
  %27 = load i32, ptr %26, align 8
  call void @_ZNKSt8functionIFN5Yosys5SExprENS0_10Functional4NodeEEEclES3_(ptr dead_on_unwind writable sret(%"class.Yosys::SExpr") align 8 %12, ptr noundef nonnull align 8 dereferenceable(32) %23, ptr %25, i32 %27)
  call void @llvm.lifetime.start.p0(i64 40, ptr %14) #3
  %28 = getelementptr inbounds nuw %"struct.(anonymous namespace)::SmtrPrintVisitor", ptr %22, i32 0, i32 1
  call void @llvm.memcpy.p0.p0.i64(ptr align 8 %15, ptr align 8 %10, i64 16, i1 false), !tbaa.struct !93
  %29 = getelementptr inbounds nuw { ptr, i32 }, ptr %15, i32 0, i32 0
  %30 = load ptr, ptr %29, align 8
  %31 = getelementptr inbounds nuw { ptr, i32 }, ptr %15, i32 0, i32 1
  %32 = load i32, ptr %31, align 8
  invoke void @_ZNKSt8functionIFN5Yosys5SExprENS0_10Functional4NodeEEEclES3_(ptr dead_on_unwind writable sret(%"class.Yosys::SExpr") align 8 %14, ptr noundef nonnull align 8 dereferenceable(32) %28, ptr %30, i32 %32)
          to label %33 unwind label %35

33:                                               ; preds = %7
  invoke void @_ZN5Yosys9SExprUtil4listIJRA7_KcNS_5SExprES5_EEES5_DpOT_(ptr dead_on_unwind writable sret(%"class.Yosys::SExpr") align 8 %0, ptr noundef nonnull align 1 dereferenceable(7) @.str.23, ptr noundef nonnull align 8 dereferenceable(40) %12, ptr noundef nonnull align 8 dereferenceable(40) %14)
          to label %34 unwind label %39

34:                                               ; preds = %33
  call void @_ZN5Yosys5SExprD2Ev(ptr noundef nonnull align 8 dereferenceable(40) %14) #3
  call void @llvm.lifetime.end.p0(i64 40, ptr %14) #3
  call void @_ZN5Yosys5SExprD2Ev(ptr noundef nonnull align 8 dereferenceable(40) %12) #3
  call void @llvm.lifetime.end.p0(i64 40, ptr %12) #3
  ret void

35:                                               ; preds = %7
  %36 = landingpad { ptr, i32 }
          cleanup
  %37 = extractvalue { ptr, i32 } %36, 0
  store ptr %37, ptr %16, align 8
  %38 = extractvalue { ptr, i32 } %36, 1
  store i32 %38, ptr %17, align 4
  br label %43

39:                                               ; preds = %33
  %40 = landingpad { ptr, i32 }
          cleanup
  %41 = extractvalue { ptr, i32 } %40, 0
  store ptr %41, ptr %16, align 8
  %42 = extractvalue { ptr, i32 } %40, 1
  store i32 %42, ptr %17, align 4
  call void @_ZN5Yosys5SExprD2Ev(ptr noundef nonnull align 8 dereferenceable(40) %14) #3
  br label %43

43:                                               ; preds = %39, %35
  call void @llvm.lifetime.end.p0(i64 40, ptr %14) #3
  call void @_ZN5Yosys5SExprD2Ev(ptr noundef nonnull align 8 dereferenceable(40) %12) #3
  call void @llvm.lifetime.end.p0(i64 40, ptr %12) #3
  br label %44

44:                                               ; preds = %43
  %45 = load ptr, ptr %16, align 8
  %46 = load i32, ptr %17, align 4
  %47 = insertvalue { ptr, i32 } poison, ptr %45, 0
  %48 = insertvalue { ptr, i32 } %47, i32 %46, 1
  resume { ptr, i32 } %48
}